; Function Attrs: mustprogress uwtable
define internal noundef zeroext i1 @_ZZN32pxrInternal_v0_24__pxrReserved__8SdfLayer8_SetDataERKNS_9TfWeakPtrINS_15SdfAbstractDataEEEPKNS_13SdfSchemaBaseEEN14_SpecsToDelete9VisitSpecERKS2_RKNS_7SdfPathE(ptr noundef nonnull align 8 dereferenceable(64) %0, ptr noundef nonnull align 8 dereferenceable(24) %1, ptr noundef nonnull align 4 dereferenceable(8) %2) unnamed_addr #3 align 2 {
  %4 = alloca %"class.pxrInternal_v0_24__pxrReserved__::TfCallContext", align 8
  %5 = alloca %"class.pxrInternal_v0_24__pxrReserved__::TfCallContext", align 8
  %6 = getelementptr inbounds nuw i8, ptr %0, i64 8
  call void @llvm.lifetime.start.p0(i64 40, ptr nonnull %5)
  %7 = load ptr, ptr %6, align 8
  %.not.i = icmp eq ptr %7, null
  br i1 %.not.i, label %8, label %_ZNK32pxrInternal_v0_24__pxrReserved__8TfRefPtrINS_15SdfAbstractDataEEptEv.exit

8:                                                ; preds = %3
  store ptr @.str.146, ptr %5, align 8
  %9 = getelementptr inbounds nuw i8, ptr %5, i64 8
  store ptr @__func__._ZNK32pxrInternal_v0_24__pxrReserved__8TfRefPtrINS_10Tf_RemnantEEptEv, ptr %9, align 8
  %10 = getelementptr inbounds nuw i8, ptr %5, i64 16
  store i64 936, ptr %10, align 8
  %11 = getelementptr inbounds nuw i8, ptr %5, i64 24
  store ptr @__PRETTY_FUNCTION__._ZNK32pxrInternal_v0_24__pxrReserved__8TfRefPtrINS_15SdfAbstractDataEEptEv, ptr %11, align 8
  %12 = getelementptr inbounds nuw i8, ptr %5, i64 32
  store i8 0, ptr %12, align 8
  call void @_ZN32pxrInternal_v0_24__pxrReserved__40Tf_PostNullSmartPtrDereferenceFatalErrorERKNS_13TfCallContextEPKc(ptr noundef nonnull align 8 dereferenceable(33) %5, ptr noundef nonnull @_ZTSN32pxrInternal_v0_24__pxrReserved__8TfRefPtrINS_15SdfAbstractDataEEE) #31
  unreachable

_ZNK32pxrInternal_v0_24__pxrReserved__8TfRefPtrINS_15SdfAbstractDataEEptEv.exit: ; preds = %3
  call void @llvm.lifetime.end.p0(i64 40, ptr nonnull %5)
  %13 = load ptr, ptr %7, align 8
  %14 = getelementptr inbounds nuw i8, ptr %13, i64 72
  %15 = load ptr, ptr %14, align 8
  %16 = tail call noundef zeroext i1 %15(ptr noundef nonnull align 8 dereferenceable(24) %7, ptr noundef nonnull align 4 dereferenceable(8) %2)
  br i1 %16, label %17, label %32

17:                                               ; preds = %_ZNK32pxrInternal_v0_24__pxrReserved__8TfRefPtrINS_15SdfAbstractDataEEptEv.exit
  call void @llvm.lifetime.start.p0(i64 40, ptr nonnull %4)
  %18 = load ptr, ptr %6, align 8
  %.not.i6 = icmp eq ptr %18, null
  br i1 %.not.i6, label %19, label %_ZNK32pxrInternal_v0_24__pxrReserved__8TfRefPtrINS_15SdfAbstractDataEEptEv.exit7

19:                                               ; preds = %17
  store ptr @.str.146, ptr %4, align 8
  %20 = getelementptr inbounds nuw i8, ptr %4, i64 8
  store ptr @__func__._ZNK32pxrInternal_v0_24__pxrReserved__8TfRefPtrINS_10Tf_RemnantEEptEv, ptr %20, align 8
  %21 = getelementptr inbounds nuw i8, ptr %4, i64 16
  store i64 936, ptr %21, align 8
  %22 = getelementptr inbounds nuw i8, ptr %4, i64 24
  store ptr @__PRETTY_FUNCTION__._ZNK32pxrInternal_v0_24__pxrReserved__8TfRefPtrINS_15SdfAbstractDataEEptEv, ptr %22, align 8
  %23 = getelementptr inbounds nuw i8, ptr %4, i64 32
  store i8 0, ptr %23, align 8
  call void @_ZN32pxrInternal_v0_24__pxrReserved__40Tf_PostNullSmartPtrDereferenceFatalErrorERKNS_13TfCallContextEPKc(ptr noundef nonnull align 8 dereferenceable(33) %4, ptr noundef nonnull @_ZTSN32pxrInternal_v0_24__pxrReserved__8TfRefPtrINS_15SdfAbstractDataEEE) #31
  unreachable

_ZNK32pxrInternal_v0_24__pxrReserved__8TfRefPtrINS_15SdfAbstractDataEEptEv.exit7: ; preds = %17
  call void @llvm.lifetime.end.p0(i64 40, ptr nonnull %4)
  %24 = load ptr, ptr %18, align 8
  %25 = getelementptr inbounds nuw i8, ptr %24, i64 96
  %26 = load ptr, ptr %25, align 8
  %27 = tail call noundef i32 %26(ptr noundef nonnull align 8 dereferenceable(24) %18, ptr noundef nonnull align 4 dereferenceable(8) %2)
  %28 = load ptr, ptr %1, align 8
  %29 = getelementptr inbounds nuw i8, ptr %28, i64 96
  %30 = load ptr, ptr %29, align 8
  %31 = tail call noundef i32 %30(ptr noundef nonnull align 8 dereferenceable(24) %1, ptr noundef nonnull align 4 dereferenceable(8) %2)
  %.not = icmp eq i32 %27, %31
  br i1 %.not, label %35, label %32

32:                                               ; preds = %_ZNK32pxrInternal_v0_24__pxrReserved__8TfRefPtrINS_15SdfAbstractDataEEptEv.exit7, %_ZNK32pxrInternal_v0_24__pxrReserved__8TfRefPtrINS_15SdfAbstractDataEEptEv.exit
  %33 = getelementptr inbounds nuw i8, ptr %0, i64 16
  %34 = tail call { ptr, i8 } @_ZNSt8_Rb_treeIN32pxrInternal_v0_24__pxrReserved__7SdfPathES1_St9_IdentityIS1_ESt4lessIS1_ESaIS1_EE16_M_insert_uniqueIRKS1_EESt4pairISt17_Rb_tree_iteratorIS1_EbEOT_(ptr noundef nonnull align 8 dereferenceable(48) %33, ptr noundef nonnull align 4 dereferenceable(8) %2)
  br label %35

35:                                               ; preds = %32, %_ZNK32pxrInternal_v0_24__pxrReserved__8TfRefPtrINS_15SdfAbstractDataEEptEv.exit7
  ret i1 true
}